target datalayout = "e-m:e-p270:32:32-p271:32:32-p272:64:64-i64:64-i128:128-f80:128-n8:16:32:64-S128"
target triple = "x86_64-pc-linux-gnu"

@hf_netb_datagram_mac = internal global i32 0, align 4
@.str.185 = private unnamed_addr constant [14 x i8] c"Sender's Name\00", align 1
@.str.189 = private unnamed_addr constant [16 x i8] c"Receiver's Name\00", align 1
@zeroes = internal constant [10 x i8] zeroinitializer, align 1

; Function Attrs: nounwind uwtable
define internal i32 @dissect_netb_datagram(ptr noundef %0, ptr noundef %1, i32 noundef %2, ptr noundef %3) #0 {
  %5 = alloca ptr, align 8
  %6 = alloca ptr, align 8
  %7 = alloca i32, align 4
  %8 = alloca ptr, align 8
  store ptr %0, ptr %5, align 8
  store ptr %1, ptr %6, align 8
  store i32 %2, ptr %7, align 4
  store ptr %3, ptr %8, align 8
  %9 = load ptr, ptr %5, align 8
  %10 = load i32, ptr %7, align 4
  %11 = add i32 %10, 12
  %12 = load ptr, ptr %8, align 8
  call void @netbios_add_name(ptr noundef @.str.189, ptr noundef %9, i32 noundef %11, ptr noundef %12)
  %13 = load ptr, ptr %5, align 8
  %14 = load i32, ptr %7, align 4
  %15 = add i32 %14, 28
  %16 = call i32 @tvb_memeql(ptr noundef %13, i32 noundef %15, ptr noundef @zeroes, i64 noundef 10)
  %17 = icmp eq i32 %16, 0
  br i1 %17, label %18, label %26

18:                                               ; preds = %4
  %19 = load ptr, ptr %8, align 8
  %20 = load i32, ptr @hf_netb_datagram_mac, align 4
  %21 = load ptr, ptr %5, align 8
  %22 = load i32, ptr %7, align 4
  %23 = add i32 %22, 28
  %24 = add i32 %23, 10
  %25 = call ptr @proto_tree_add_item(ptr noundef %19, i32 noundef %20, ptr noundef %21, i32 noundef %24, i32 noundef 6, i32 noundef 0)
  br label %31

26:                                               ; preds = %4
  %27 = load ptr, ptr %5, align 8
  %28 = load i32, ptr %7, align 4
  %29 = add i32 %28, 28
  %30 = load ptr, ptr %8, align 8
  call void @netbios_add_name(ptr noundef @.str.185, ptr noundef %27, i32 noundef %29, ptr noundef %30)
  br label %31

31:                                               ; preds = %26, %18
  ret i32 0
}