; Function Attrs: nounwind uwtable
define internal noundef i32 @dissect_netb_datagram(ptr noundef %0, ptr readnone captures(none) %1, i32 noundef %2, ptr noundef %3) #1 {
  %5 = add i32 %2, 12
  tail call void @netbios_add_name(ptr noundef nonnull @.str.189, ptr noundef %0, i32 noundef %5, ptr noundef %3)
  %6 = add i32 %2, 28
  %7 = tail call i32 @tvb_memeql(ptr noundef %0, i32 noundef %6, ptr noundef nonnull @zeroes, i64 noundef 10) #6
  %8 = icmp eq i32 %7, 0
  br i1 %8, label %9, label %13

9:                                                ; preds = %4
  %10 = load i32, ptr @hf_netb_datagram_mac, align 4
  %11 = add i32 %2, 38
  %12 = tail call ptr @proto_tree_add_item(ptr noundef %3, i32 noundef %10, ptr noundef %0, i32 noundef %11, i32 noundef 6, i32 noundef 0) #6
  br label %14

13:                                               ; preds = %4
  tail call void @netbios_add_name(ptr noundef nonnull @.str.185, ptr noundef %0, i32 noundef %6, ptr noundef %3)
  br label %14

14:                                               ; preds = %13, %9
  ret i32 0
}